; Function Attrs: mustprogress nounwind uwtable
define internal void @_ZN12_GLOBAL__N_113X86PassConfig11addIRPassesEv(ptr noundef nonnull align 8 dereferenceable(134) %0) unnamed_addr #0 align 2 {
  %2 = tail call noundef ptr @_ZN4llvm28createAtomicExpandLegacyPassEv() #21
  tail call void @_ZN4llvm16TargetPassConfig7addPassEPNS_4PassE(ptr noundef nonnull align 8 dereferenceable(134) %0, ptr noundef %2) #21
  %3 = tail call noundef ptr @_ZN4llvm31createX86LowerAMXIntrinsicsPassEv() #21
  tail call void @_ZN4llvm16TargetPassConfig7addPassEPNS_4PassE(ptr noundef nonnull align 8 dereferenceable(134) %0, ptr noundef %3) #21
  %4 = tail call noundef ptr @_ZN4llvm25createX86LowerAMXTypePassEv() #21
  tail call void @_ZN4llvm16TargetPassConfig7addPassEPNS_4PassE(ptr noundef nonnull align 8 dereferenceable(134) %0, ptr noundef %4) #21
  tail call void @_ZN4llvm16TargetPassConfig11addIRPassesEv(ptr noundef nonnull align 8 dereferenceable(134) %0) #21
  %5 = getelementptr inbounds nuw i8, ptr %0, i64 112
  %6 = load ptr, ptr %5, align 8
  %7 = getelementptr inbounds nuw i8, ptr %6, i64 664
  %8 = load i32, ptr %7, align 8
  %.not = icmp eq i32 %8, 0
  br i1 %.not, label %12, label %9

9:                                                ; preds = %1
  %10 = tail call noundef ptr @_ZN4llvm27createInterleavedAccessPassEv() #21
  tail call void @_ZN4llvm16TargetPassConfig7addPassEPNS_4PassE(ptr noundef nonnull align 8 dereferenceable(134) %0, ptr noundef %10) #21
  %11 = tail call noundef ptr @_ZN4llvm29createX86PartialReductionPassEv() #21
  tail call void @_ZN4llvm16TargetPassConfig7addPassEPNS_4PassE(ptr noundef nonnull align 8 dereferenceable(134) %0, ptr noundef %11) #21
  br label %12

12:                                               ; preds = %9, %1
  %13 = tail call noundef ptr @_ZN4llvm26createIndirectBrExpandPassEv() #21
  tail call void @_ZN4llvm16TargetPassConfig7addPassEPNS_4PassE(ptr noundef nonnull align 8 dereferenceable(134) %0, ptr noundef %13) #21
  %14 = load ptr, ptr %5, align 8
  %15 = getelementptr inbounds i8, ptr %14, i64 572
  %16 = load i32, ptr %15, align 4
  %17 = icmp eq i32 %16, 14
  br i1 %17, label %18, label %26

18:                                               ; preds = %12
  %19 = getelementptr inbounds i8, ptr %14, i64 560
  %20 = load i32, ptr %19, align 8
  %21 = icmp eq i32 %20, 38
  br i1 %21, label %22, label %24

22:                                               ; preds = %18
  %23 = tail call noundef ptr @_ZN4llvm25createCFGuardDispatchPassEv() #21
  br label %.sink.split

24:                                               ; preds = %18
  %25 = tail call noundef ptr @_ZN4llvm22createCFGuardCheckPassEv() #21
  br label %.sink.split

.sink.split:                                      ; preds = %24, %22
  %.sink = phi ptr [ %23, %22 ], [ %25, %24 ]
  tail call void @_ZN4llvm16TargetPassConfig7addPassEPNS_4PassE(ptr noundef nonnull align 8 dereferenceable(134) %0, ptr noundef %.sink) #21
  br label %26

26:                                               ; preds = %.sink.split, %12
  %27 = load ptr, ptr %5, align 8
  %28 = getelementptr inbounds i8, ptr %27, i64 920
  %29 = load i16, ptr %28, align 8
  %30 = and i16 %29, 512
  %.not3 = icmp eq i16 %30, 0
  br i1 %.not3, label %33, label %31

31:                                               ; preds = %26
  %32 = tail call noundef ptr @_ZN4llvm25createJMCInstrumenterPassEv() #21
  tail call void @_ZN4llvm16TargetPassConfig7addPassEPNS_4PassE(ptr noundef nonnull align 8 dereferenceable(134) %0, ptr noundef %32) #21
  br label %33

33:                                               ; preds = %31, %26
  ret void
}